target datalayout = "e-m:e-p270:32:32-p271:32:32-p272:64:64-i64:64-i128:128-f80:128-n8:16:32:64-S128"
target triple = "x86_64-pc-linux-gnu"

%struct.store_engine = type { %union.pthread_mutex_t, ptr, ptr, ptr, ptr, ptr, ptr, ptr, i64, i32, i32, i32, i32, i32, i32, i32, i32, %union.pthread_mutex_t, %struct.extstore_stats, %struct.store_maint }
%union.pthread_mutex_t = type { %struct.__pthread_mutex_s }
%struct.__pthread_mutex_s = type { i32, i32, i32, i32, i32, i16, i16, %struct.__pthread_internal_list }
%struct.__pthread_internal_list = type { ptr, ptr }
%struct.extstore_stats = type { i64, i64, i64, i64, i64, i64, i64, i64, i64, i64, i64, i64, i64, i64, i64, i64, i64, ptr }
%struct.store_maint = type { %union.pthread_mutex_t }
%struct.store_io_thread = type { %union.pthread_mutex_t, %union.pthread_cond_t, ptr, ptr, ptr, i32 }
%union.pthread_cond_t = type { %struct.__pthread_cond_s }
%struct.__pthread_cond_s = type { %union.__atomic_wide_counter, %union.__atomic_wide_counter, [2 x i32], [2 x i32], i32, i32, [2 x i32] }
%union.__atomic_wide_counter = type { i64 }
%struct._obj_io = type { ptr, ptr, ptr, ptr, i32, i32, i32, i32, i16, i32, ptr }

; Function Attrs: nounwind uwtable
define internal i32 @_extstore_submit(ptr noundef %0, ptr noundef %1, ptr noundef %2) #0 {
  %4 = alloca ptr, align 8
  %5 = alloca ptr, align 8
  %6 = alloca ptr, align 8
  %7 = alloca i32, align 4
  %8 = alloca ptr, align 8
  %9 = alloca ptr, align 8
  store ptr %0, ptr %4, align 8, !tbaa !4
  store ptr %1, ptr %5, align 8, !tbaa !108
  store ptr %2, ptr %6, align 8, !tbaa !4
  call void @llvm.lifetime.start.p0(i64 4, ptr %7) #8
  store i32 0, ptr %7, align 4, !tbaa !27
  call void @llvm.lifetime.start.p0(i64 8, ptr %8) #8
  %10 = load ptr, ptr %5, align 8, !tbaa !108
  store ptr %10, ptr %8, align 8, !tbaa !108
  call void @llvm.lifetime.start.p0(i64 8, ptr %9) #8
  store ptr null, ptr %9, align 8, !tbaa !108
  br label %11

11:                                               ; preds = %14, %3
  %12 = load ptr, ptr %8, align 8, !tbaa !108
  %13 = icmp ne ptr %12, null
  br i1 %13, label %14, label %21

14:                                               ; preds = %11
  %15 = load ptr, ptr %8, align 8, !tbaa !108
  store ptr %15, ptr %9, align 8, !tbaa !108
  %16 = load i32, ptr %7, align 4, !tbaa !27
  %17 = add i32 %16, 1
  store i32 %17, ptr %7, align 4, !tbaa !27
  %18 = load ptr, ptr %8, align 8, !tbaa !108
  %19 = getelementptr inbounds nuw %struct._obj_io, ptr %18, i32 0, i32 1
  %20 = load ptr, ptr %19, align 8, !tbaa !113
  store ptr %20, ptr %8, align 8, !tbaa !108
  br label %11, !llvm.loop !154

21:                                               ; preds = %11
  %22 = load ptr, ptr %6, align 8, !tbaa !4
  %23 = getelementptr inbounds nuw %struct.store_io_thread, ptr %22, i32 0, i32 0
  %24 = call i32 @pthread_mutex_lock(ptr noundef %23) #8
  %25 = load i32, ptr %7, align 4, !tbaa !27
  %26 = load ptr, ptr %6, align 8, !tbaa !4
  %27 = getelementptr inbounds nuw %struct.store_io_thread, ptr %26, i32 0, i32 5
  %28 = load i32, ptr %27, align 8, !tbaa !30
  %29 = add i32 %28, %25
  store i32 %29, ptr %27, align 8, !tbaa !30
  %30 = load ptr, ptr %6, align 8, !tbaa !4
  %31 = getelementptr inbounds nuw %struct.store_io_thread, ptr %30, i32 0, i32 2
  %32 = load ptr, ptr %31, align 8, !tbaa !127
  %33 = icmp eq ptr %32, null
  br i1 %33, label %34, label %41

34:                                               ; preds = %21
  %35 = load ptr, ptr %5, align 8, !tbaa !108
  %36 = load ptr, ptr %6, align 8, !tbaa !4
  %37 = getelementptr inbounds nuw %struct.store_io_thread, ptr %36, i32 0, i32 2
  store ptr %35, ptr %37, align 8, !tbaa !127
  %38 = load ptr, ptr %9, align 8, !tbaa !108
  %39 = load ptr, ptr %6, align 8, !tbaa !4
  %40 = getelementptr inbounds nuw %struct.store_io_thread, ptr %39, i32 0, i32 3
  store ptr %38, ptr %40, align 8, !tbaa !128
  br label %50

41:                                               ; preds = %21
  %42 = load ptr, ptr %5, align 8, !tbaa !108
  %43 = load ptr, ptr %6, align 8, !tbaa !4
  %44 = getelementptr inbounds nuw %struct.store_io_thread, ptr %43, i32 0, i32 3
  %45 = load ptr, ptr %44, align 8, !tbaa !128
  %46 = getelementptr inbounds nuw %struct._obj_io, ptr %45, i32 0, i32 1
  store ptr %42, ptr %46, align 8, !tbaa !113
  %47 = load ptr, ptr %9, align 8, !tbaa !108
  %48 = load ptr, ptr %6, align 8, !tbaa !4
  %49 = getelementptr inbounds nuw %struct.store_io_thread, ptr %48, i32 0, i32 3
  store ptr %47, ptr %49, align 8, !tbaa !128
  br label %50

50:                                               ; preds = %41, %34
  %51 = load ptr, ptr %6, align 8, !tbaa !4
  %52 = getelementptr inbounds nuw %struct.store_io_thread, ptr %51, i32 0, i32 0
  %53 = call i32 @pthread_mutex_unlock(ptr noundef %52) #8
  %54 = load ptr, ptr %6, align 8, !tbaa !4
  %55 = getelementptr inbounds nuw %struct.store_io_thread, ptr %54, i32 0, i32 1
  %56 = call i32 @pthread_cond_signal(ptr noundef %55) #8
  call void @llvm.lifetime.end.p0(i64 8, ptr %9) #8
  call void @llvm.lifetime.end.p0(i64 8, ptr %8) #8
  call void @llvm.lifetime.end.p0(i64 4, ptr %7) #8
  ret i32 0
}

; Function Attrs: nounwind uwtable
define internal ptr @_get_io_thread(ptr noundef %0) #0 {
  %2 = alloca ptr, align 8
  %3 = alloca i32, align 4
  %4 = alloca i64, align 8
  %5 = alloca i32, align 4
  %6 = alloca i32, align 4
  store ptr %0, ptr %2, align 8, !tbaa !10
  call void @llvm.lifetime.start.p0(i64 4, ptr %3) #8
  store i32 -1, ptr %3, align 4, !tbaa !27
  call void @llvm.lifetime.start.p0(i64 8, ptr %4) #8
  store i64 9223372036854775807, ptr %4, align 8, !tbaa !151
  %7 = load ptr, ptr %2, align 8, !tbaa !10
  %8 = getelementptr inbounds nuw %struct.store_engine, ptr %7, i32 0, i32 0
  %9 = call i32 @pthread_mutex_lock(ptr noundef %8) #8
  call void @llvm.lifetime.start.p0(i64 4, ptr %5) #8
  store i32 0, ptr %5, align 4, !tbaa !27
  br label %10

10:                                               ; preds = %54, %1
  %11 = load i32, ptr %5, align 4, !tbaa !27
  %12 = load ptr, ptr %2, align 8, !tbaa !10
  %13 = getelementptr inbounds nuw %struct.store_engine, ptr %12, i32 0, i32 11
  %14 = load i32, ptr %13, align 8, !tbaa !28
  %15 = icmp ult i32 %11, %14
  br i1 %15, label %17, label %16

16:                                               ; preds = %10
  store i32 2, ptr %6, align 4
  br label %57

17:                                               ; preds = %10
  %18 = load ptr, ptr %2, align 8, !tbaa !10
  %19 = getelementptr inbounds nuw %struct.store_engine, ptr %18, i32 0, i32 4
  %20 = load ptr, ptr %19, align 8, !tbaa !29
  %21 = load i32, ptr %5, align 4, !tbaa !27
  %22 = sext i32 %21 to i64
  %23 = getelementptr inbounds %struct.store_io_thread, ptr %20, i64 %22
  %24 = getelementptr inbounds nuw %struct.store_io_thread, ptr %23, i32 0, i32 5
  %25 = load i32, ptr %24, align 8, !tbaa !30
  %26 = icmp eq i32 %25, 0
  br i1 %26, label %27, label %29

27:                                               ; preds = %17
  %28 = load i32, ptr %5, align 4, !tbaa !27
  store i32 %28, ptr %3, align 4, !tbaa !27
  store i32 2, ptr %6, align 4
  br label %57

29:                                               ; preds = %17
  %30 = load ptr, ptr %2, align 8, !tbaa !10
  %31 = getelementptr inbounds nuw %struct.store_engine, ptr %30, i32 0, i32 4
  %32 = load ptr, ptr %31, align 8, !tbaa !29
  %33 = load i32, ptr %5, align 4, !tbaa !27
  %34 = sext i32 %33 to i64
  %35 = getelementptr inbounds %struct.store_io_thread, ptr %32, i64 %34
  %36 = getelementptr inbounds nuw %struct.store_io_thread, ptr %35, i32 0, i32 5
  %37 = load i32, ptr %36, align 8, !tbaa !30
  %38 = zext i32 %37 to i64
  %39 = load i64, ptr %4, align 8, !tbaa !151
  %40 = icmp slt i64 %38, %39
  br i1 %40, label %41, label %52

41:                                               ; preds = %29
  %42 = load i32, ptr %5, align 4, !tbaa !27
  store i32 %42, ptr %3, align 4, !tbaa !27
  %43 = load ptr, ptr %2, align 8, !tbaa !10
  %44 = getelementptr inbounds nuw %struct.store_engine, ptr %43, i32 0, i32 4
  %45 = load ptr, ptr %44, align 8, !tbaa !29
  %46 = load i32, ptr %5, align 4, !tbaa !27
  %47 = sext i32 %46 to i64
  %48 = getelementptr inbounds %struct.store_io_thread, ptr %45, i64 %47
  %49 = getelementptr inbounds nuw %struct.store_io_thread, ptr %48, i32 0, i32 5
  %50 = load i32, ptr %49, align 8, !tbaa !30
  %51 = zext i32 %50 to i64
  store i64 %51, ptr %4, align 8, !tbaa !151
  br label %52

52:                                               ; preds = %41, %29
  br label %53

53:                                               ; preds = %52
  br label %54

54:                                               ; preds = %53
  %55 = load i32, ptr %5, align 4, !tbaa !27
  %56 = add nsw i32 %55, 1
  store i32 %56, ptr %5, align 4, !tbaa !27
  br label %10, !llvm.loop !153

57:                                               ; preds = %27, %16
  call void @llvm.lifetime.end.p0(i64 4, ptr %5) #8
  br label %58

58:                                               ; preds = %57
  %59 = load ptr, ptr %2, align 8, !tbaa !10
  %60 = getelementptr inbounds nuw %struct.store_engine, ptr %59, i32 0, i32 0
  %61 = call i32 @pthread_mutex_unlock(ptr noundef %60) #8
  %62 = load ptr, ptr %2, align 8, !tbaa !10
  %63 = getelementptr inbounds nuw %struct.store_engine, ptr %62, i32 0, i32 4
  %64 = load ptr, ptr %63, align 8, !tbaa !29
  %65 = load i32, ptr %3, align 4, !tbaa !27
  %66 = sext i32 %65 to i64
  %67 = getelementptr inbounds %struct.store_io_thread, ptr %64, i64 %66
  store i32 1, ptr %6, align 4
  call void @llvm.lifetime.end.p0(i64 8, ptr %4) #8
  call void @llvm.lifetime.end.p0(i64 4, ptr %3) #8
  ret ptr %67
}

; Function Attrs: nounwind uwtable
define dso_local i32 @extstore_submit(ptr noundef %0, ptr noundef %1) #0 {
  %3 = alloca ptr, align 8
  %4 = alloca ptr, align 8
  %5 = alloca ptr, align 8
  %6 = alloca ptr, align 8
  store ptr %0, ptr %3, align 8, !tbaa !4
  store ptr %1, ptr %4, align 8, !tbaa !108
  call void @llvm.lifetime.start.p0(i64 8, ptr %5) #8
  %7 = load ptr, ptr %3, align 8, !tbaa !4
  store ptr %7, ptr %5, align 8, !tbaa !10
  call void @llvm.lifetime.start.p0(i64 8, ptr %6) #8
  %8 = load ptr, ptr %5, align 8, !tbaa !10
  %9 = call ptr @_get_io_thread(ptr noundef %8)
  store ptr %9, ptr %6, align 8, !tbaa !4
  %10 = load ptr, ptr %3, align 8, !tbaa !4
  %11 = load ptr, ptr %4, align 8, !tbaa !108
  %12 = load ptr, ptr %6, align 8, !tbaa !4
  %13 = call i32 @_extstore_submit(ptr noundef %10, ptr noundef %11, ptr noundef %12)
  call void @llvm.lifetime.end.p0(i64 8, ptr %6) #8
  call void @llvm.lifetime.end.p0(i64 8, ptr %5) #8
  ret i32 %13
}