; Function Attrs: nounwind uwtable
define dso_local noundef i32 @extstore_submit(ptr noundef %0, ptr noundef %1) local_unnamed_addr #0 {
  %3 = tail call i32 @pthread_mutex_lock(ptr noundef %0) #13
  %4 = getelementptr inbounds nuw i8, ptr %0, i64 112
  %5 = load i32, ptr %4, align 8, !tbaa !22
  %.not.i = icmp eq i32 %5, 0
  br i1 %.not.i, label %_get_io_thread.exit, label %.lr.ph.i

.lr.ph.i:                                         ; preds = %2
  %6 = getelementptr inbounds nuw i8, ptr %0, i64 64
  %7 = load ptr, ptr %6, align 8, !tbaa !26
  %wide.trip.count.i = zext i32 %5 to i64
  br label %8

8:                                                ; preds = %13, %.lr.ph.i
  %indvars.iv.i = phi i64 [ 0, %.lr.ph.i ], [ %indvars.iv.next.i, %13 ]
  %.01522.i = phi i64 [ 9223372036854775807, %.lr.ph.i ], [ %spec.select20.i, %13 ]
  %.01621.i = phi i32 [ -1, %.lr.ph.i ], [ %spec.select.i, %13 ]
  %9 = getelementptr inbounds nuw %struct.store_io_thread, ptr %7, i64 %indvars.iv.i, i32 5
  %10 = load i32, ptr %9, align 8, !tbaa !27
  %11 = icmp eq i32 %10, 0
  %12 = trunc nuw nsw i64 %indvars.iv.i to i32
  br i1 %11, label %._crit_edge.loopexit.i, label %13

13:                                               ; preds = %8
  %14 = zext i32 %10 to i64
  %15 = icmp samesign ugt i64 %.01522.i, %14
  %spec.select.i = select i1 %15, i32 %12, i32 %.01621.i
  %spec.select20.i = tail call i64 @llvm.umin.i64(i64 %.01522.i, i64 %14)
  %indvars.iv.next.i = add nuw nsw i64 %indvars.iv.i, 1
  %exitcond.not.i = icmp eq i64 %indvars.iv.next.i, %wide.trip.count.i
  br i1 %exitcond.not.i, label %._crit_edge.loopexit.i, label %8, !llvm.loop !143

._crit_edge.loopexit.i:                           ; preds = %13, %8
  %.117.ph.i = phi i32 [ %spec.select.i, %13 ], [ %12, %8 ]
  %16 = sext i32 %.117.ph.i to i64
  br label %_get_io_thread.exit

_get_io_thread.exit:                              ; preds = %2, %._crit_edge.loopexit.i
  %.117.i = phi i64 [ -1, %2 ], [ %16, %._crit_edge.loopexit.i ]
  %17 = tail call i32 @pthread_mutex_unlock(ptr noundef nonnull %0) #13
  %18 = getelementptr inbounds nuw i8, ptr %0, i64 64
  %19 = load ptr, ptr %18, align 8, !tbaa !26
  %20 = getelementptr inbounds %struct.store_io_thread, ptr %19, i64 %.117.i
  %.not1.i = icmp eq ptr %1, null
  br i1 %.not1.i, label %._crit_edge.i, label %.lr.ph.i5

.lr.ph.i5:                                        ; preds = %_get_io_thread.exit, %.lr.ph.i5
  %.0183.i = phi ptr [ %23, %.lr.ph.i5 ], [ %1, %_get_io_thread.exit ]
  %.0192.i = phi i32 [ %21, %.lr.ph.i5 ], [ 0, %_get_io_thread.exit ]
  %21 = add i32 %.0192.i, 1
  %22 = getelementptr inbounds nuw i8, ptr %.0183.i, i64 8
  %23 = load ptr, ptr %22, align 8, !tbaa !103
  %.not.i6 = icmp eq ptr %23, null
  br i1 %.not.i6, label %._crit_edge.i, label %.lr.ph.i5, !llvm.loop !139

._crit_edge.i:                                    ; preds = %.lr.ph.i5, %_get_io_thread.exit
  %.019.lcssa.i = phi i32 [ 0, %_get_io_thread.exit ], [ %21, %.lr.ph.i5 ]
  %.0.lcssa.i = phi ptr [ null, %_get_io_thread.exit ], [ %.0183.i, %.lr.ph.i5 ]
  %24 = tail call i32 @pthread_mutex_lock(ptr noundef %20) #13
  %25 = getelementptr inbounds nuw i8, ptr %20, i64 112
  %26 = load i32, ptr %25, align 8, !tbaa !27
  %27 = add i32 %26, %.019.lcssa.i
  store i32 %27, ptr %25, align 8, !tbaa !27
  %28 = getelementptr inbounds nuw i8, ptr %20, i64 88
  %29 = load ptr, ptr %28, align 8, !tbaa !114
  %30 = icmp eq ptr %29, null
  br i1 %30, label %31, label %33

31:                                               ; preds = %._crit_edge.i
  store ptr %1, ptr %28, align 8, !tbaa !114
  %32 = getelementptr inbounds nuw i8, ptr %20, i64 96
  store ptr %.0.lcssa.i, ptr %32, align 8, !tbaa !116
  br label %_extstore_submit.exit

33:                                               ; preds = %._crit_edge.i
  %34 = getelementptr inbounds nuw i8, ptr %20, i64 96
  %35 = load ptr, ptr %34, align 8, !tbaa !116
  %36 = getelementptr inbounds nuw i8, ptr %35, i64 8
  store ptr %1, ptr %36, align 8, !tbaa !103
  store ptr %.0.lcssa.i, ptr %34, align 8, !tbaa !116
  br label %_extstore_submit.exit

_extstore_submit.exit:                            ; preds = %31, %33
  %37 = tail call i32 @pthread_mutex_unlock(ptr noundef nonnull %20) #13
  %38 = getelementptr inbounds nuw i8, ptr %20, i64 40
  %39 = tail call i32 @pthread_cond_signal(ptr noundef nonnull %38) #13
  ret i32 0
}